; Function Attrs: mustprogress uwtable
define void @_ZN10PacketList16setTimeReferenceEv(ptr noundef nonnull align 8 dereferenceable(464) %0) local_unnamed_addr #0 align 2 {
  %2 = alloca %class.QModelIndex, align 8
  %3 = getelementptr inbounds i8, ptr %0, i64 64
  %4 = load ptr, ptr %3, align 8
  %.not = icmp eq ptr %4, null
  br i1 %.not, label %10, label %5

5:                                                ; preds = %1
  %6 = getelementptr inbounds i8, ptr %0, i64 40
  %7 = load ptr, ptr %6, align 8
  %.not1 = icmp eq ptr %7, null
  br i1 %.not1, label %10, label %8

8:                                                ; preds = %5
  call void @_ZNK17QAbstractItemView12currentIndexEv(ptr dead_on_unwind nonnull writable sret(%class.QModelIndex) align 8 %2, ptr noundef nonnull align 8 dereferenceable(40) %0)
  call void @_ZN15PacketListModel18toggleFrameRefTimeERK11QModelIndex(ptr noundef nonnull align 8 dereferenceable(164) %7, ptr noundef nonnull align 8 dereferenceable(24) %2)
  %9 = getelementptr inbounds i8, ptr %0, i64 237
  store i8 1, ptr %9, align 1
  br label %10

10:                                               ; preds = %1, %5, %8
  ret void
}